target datalayout = "e-m:e-p270:32:32-p271:32:32-p272:64:64-i64:64-i128:128-f80:128-n8:16:32:64-S128"
target triple = "x86_64-unknown-linux-gnu"

%"struct.nla::emonics::head_tail" = type { ptr, ptr }
%"struct.nla::emonics::cell" = type <{ ptr, i32, [4 x i8] }>

; Function Attrs: mustprogress nounwind uwtable
define hidden void @_ZN3nla7emonics11merge_cellsERNS0_9head_tailES2_(ptr noundef nonnull align 8 dereferenceable(216) %this, ptr noundef nonnull align 8 dereferenceable(16) %root, ptr noundef nonnull align 8 dereferenceable(16) %other) #4 align 2 {
entry:
  %this.addr = alloca ptr, align 8
  %root.addr = alloca ptr, align 8
  %other.addr = alloca ptr, align 8
  %root_head = alloca ptr, align 8
  %root_tail = alloca ptr, align 8
  %other_head = alloca ptr, align 8
  %other_tail = alloca ptr, align 8
  store ptr %this, ptr %this.addr, align 8
  store ptr %root, ptr %root.addr, align 8
  store ptr %other, ptr %other.addr, align 8
  %0 = load ptr, ptr %root.addr, align 8
  %1 = load ptr, ptr %other.addr, align 8
  %cmp = icmp eq ptr %0, %1
  br i1 %cmp, label %if.then, label %if.end

if.then:                                          ; preds = %entry
  br label %if.end10

if.end:                                           ; preds = %entry
  %2 = load ptr, ptr %root.addr, align 8
  %m_head = getelementptr inbounds %"struct.nla::emonics::head_tail", ptr %2, i32 0, i32 0
  store ptr %m_head, ptr %root_head, align 8
  %3 = load ptr, ptr %root.addr, align 8
  %m_tail = getelementptr inbounds %"struct.nla::emonics::head_tail", ptr %3, i32 0, i32 1
  store ptr %m_tail, ptr %root_tail, align 8
  %4 = load ptr, ptr %other.addr, align 8
  %m_head2 = getelementptr inbounds %"struct.nla::emonics::head_tail", ptr %4, i32 0, i32 0
  %5 = load ptr, ptr %m_head2, align 8
  store ptr %5, ptr %other_head, align 8
  %6 = load ptr, ptr %other.addr, align 8
  %m_tail3 = getelementptr inbounds %"struct.nla::emonics::head_tail", ptr %6, i32 0, i32 1
  %7 = load ptr, ptr %m_tail3, align 8
  store ptr %7, ptr %other_tail, align 8
  %8 = load ptr, ptr %root_head, align 8
  %9 = load ptr, ptr %8, align 8
  %cmp4 = icmp eq ptr %9, null
  br i1 %cmp4, label %if.then5, label %if.else

if.then5:                                         ; preds = %if.end
  %10 = load ptr, ptr %other_head, align 8
  %11 = load ptr, ptr %root_head, align 8
  store ptr %10, ptr %11, align 8
  %12 = load ptr, ptr %other_tail, align 8
  %13 = load ptr, ptr %root_tail, align 8
  store ptr %12, ptr %13, align 8
  br label %if.end10

if.else:                                          ; preds = %if.end
  %14 = load ptr, ptr %other_head, align 8
  %tobool = icmp ne ptr %14, null
  br i1 %tobool, label %if.then6, label %if.else8

if.then6:                                         ; preds = %if.else
  %15 = load ptr, ptr %other_head, align 8
  %16 = load ptr, ptr %root_tail, align 8
  %17 = load ptr, ptr %16, align 8
  %m_next = getelementptr inbounds %"struct.nla::emonics::cell", ptr %17, i32 0, i32 0
  store ptr %15, ptr %m_next, align 8
  %18 = load ptr, ptr %root_head, align 8
  %19 = load ptr, ptr %18, align 8
  %20 = load ptr, ptr %other_tail, align 8
  %m_next7 = getelementptr inbounds %"struct.nla::emonics::cell", ptr %20, i32 0, i32 0
  store ptr %19, ptr %m_next7, align 8
  %21 = load ptr, ptr %other_head, align 8
  %22 = load ptr, ptr %root_head, align 8
  store ptr %21, ptr %22, align 8
  br label %if.end9

if.else8:                                         ; preds = %if.else
  br label %if.end9

if.end9:                                          ; preds = %if.else8, %if.then6
  br label %if.end10

if.end10:                                         ; preds = %if.end9, %if.then5, %if.then
  ret void
}