; Function Attrs: mustprogress nofree norecurse nosync nounwind willreturn memory(write, argmem: readwrite, inaccessiblemem: none) uwtable
define hidden void @_ZN3nla7emonics11merge_cellsERNS0_9head_tailES2_(ptr nocapture noundef nonnull readnone align 8 dereferenceable(216) %this, ptr noundef nonnull align 8 dereferenceable(16) %root, ptr noundef nonnull readonly align 8 dereferenceable(16) %other) local_unnamed_addr #6 align 2 {
entry:
  %cmp = icmp eq ptr %root, %other
  br i1 %cmp, label %if.end10, label %if.end

if.end:                                           ; preds = %entry
  %m_tail = getelementptr inbounds i8, ptr %root, i64 8
  %0 = load ptr, ptr %other, align 8
  %m_tail3 = getelementptr inbounds i8, ptr %other, i64 8
  %1 = load ptr, ptr %m_tail3, align 8
  %2 = load ptr, ptr %root, align 8
  %cmp4 = icmp eq ptr %2, null
  br i1 %cmp4, label %if.then5, label %if.else

if.then5:                                         ; preds = %if.end
  store ptr %0, ptr %root, align 8
  store ptr %1, ptr %m_tail, align 8
  br label %if.end10

if.else:                                          ; preds = %if.end
  %tobool.not = icmp eq ptr %0, null
  br i1 %tobool.not, label %if.end10, label %if.then6

if.then6:                                         ; preds = %if.else
  %3 = load ptr, ptr %m_tail, align 8
  store ptr %0, ptr %3, align 8
  %4 = load ptr, ptr %root, align 8
  store ptr %4, ptr %1, align 8
  store ptr %0, ptr %root, align 8
  br label %if.end10

if.end10:                                         ; preds = %if.then6, %if.else, %entry, %if.then5
  ret void
}